target datalayout = "e-m:e-p270:32:32-p271:32:32-p272:64:64-i64:64-i128:128-f80:128-n8:16:32:64-S128"
target triple = "x86_64-pc-linux-gnu"

%struct.CPUClass = type { %struct.DeviceClass, ptr, ptr, ptr, ptr, ptr, ptr, ptr, ptr, ptr, ptr, ptr, ptr, ptr, ptr, ptr, ptr, ptr, ptr, ptr, ptr, ptr, i32, i32, i8 }
%struct.DeviceClass = type { %struct.ObjectClass, [1 x i64], ptr, ptr, ptr, i16, i8, i8, ptr, ptr, ptr, ptr, ptr, ptr }
%struct.ObjectClass = type { ptr, ptr, [4 x ptr], [4 x ptr], ptr, ptr }

@.str.3 = private unnamed_addr constant [2 x i8] c",\00", align 1
@.str.4 = private unnamed_addr constant [28 x i8] c"-cpu option cannot be empty\00", align 1
@.str.5 = private unnamed_addr constant [10 x i8] c"riscv-cpu\00", align 1
@.str.6 = private unnamed_addr constant [30 x i8] c"unable to find CPU model '%s'\00", align 1
@error_fatal = external global ptr, align 8
@.str.11 = private unnamed_addr constant [4 x i8] c"cpu\00", align 1
@.str.12 = private unnamed_addr constant [100 x i8] c"/home/dtcxzyw/WorkSpace/Projects/compilers/llvm-opt-benchmark/bench/qemu/qemu/include/hw/core/cpu.h\00", align 1
@__func__.CPU_CLASS = private unnamed_addr constant [10 x i8] c"CPU_CLASS\00", align 1

; Function Attrs: inlinehint nounwind sspstrong uwtable
define internal ptr @CPU_CLASS(ptr noundef %0) #1 {
  %2 = alloca ptr, align 8
  store ptr %0, ptr %2, align 8
  %3 = load ptr, ptr %2, align 8
  %4 = call ptr @object_class_dynamic_cast_assert(ptr noundef %3, ptr noundef @.str.11, ptr noundef @.str.12, i32 noundef 67, ptr noundef @__func__.CPU_CLASS)
  ret ptr %4
}

; Function Attrs: nounwind sspstrong uwtable
define dso_local ptr @parse_cpu_option(ptr noundef %0) #0 {
  %2 = alloca ptr, align 8
  %3 = alloca ptr, align 8
  %4 = alloca ptr, align 8
  %5 = alloca ptr, align 8
  %6 = alloca ptr, align 8
  store ptr %0, ptr %2, align 8
  call void @llvm.lifetime.start.p0(i64 8, ptr %3) #16
  store ptr null, ptr %3, align 8, !annotation !7
  call void @llvm.lifetime.start.p0(i64 8, ptr %4) #16
  store ptr null, ptr %4, align 8, !annotation !7
  call void @llvm.lifetime.start.p0(i64 8, ptr %5) #16
  store ptr null, ptr %5, align 8, !annotation !7
  call void @llvm.lifetime.start.p0(i64 8, ptr %6) #16
  store ptr null, ptr %6, align 8, !annotation !7
  %7 = load ptr, ptr %2, align 8
  %8 = call ptr @g_strsplit(ptr noundef %7, ptr noundef @.str.3, i32 noundef 2)
  store ptr %8, ptr %5, align 8
  %9 = load ptr, ptr %5, align 8
  %10 = getelementptr inbounds ptr, ptr %9, i64 0
  %11 = load ptr, ptr %10, align 8
  %12 = icmp ne ptr %11, null
  br i1 %12, label %14, label %13

13:                                               ; preds = %1
  call void (ptr, ...) @error_report(ptr noundef @.str.4)
  call void @exit(i32 noundef 1) #15
  unreachable

14:                                               ; preds = %1
  %15 = load ptr, ptr %5, align 8
  %16 = getelementptr inbounds ptr, ptr %15, i64 0
  %17 = load ptr, ptr %16, align 8
  %18 = call ptr @cpu_class_by_name(ptr noundef @.str.5, ptr noundef %17)
  store ptr %18, ptr %3, align 8
  %19 = load ptr, ptr %3, align 8
  %20 = icmp eq ptr %19, null
  br i1 %20, label %21, label %26

21:                                               ; preds = %14
  %22 = load ptr, ptr %5, align 8
  %23 = getelementptr inbounds ptr, ptr %22, i64 0
  %24 = load ptr, ptr %23, align 8
  call void (ptr, ...) @error_report(ptr noundef @.str.6, ptr noundef %24)
  %25 = load ptr, ptr %5, align 8
  call void @g_strfreev(ptr noundef %25)
  call void @exit(i32 noundef 1) #15
  unreachable

26:                                               ; preds = %14
  %27 = load ptr, ptr %3, align 8
  %28 = call ptr @object_class_get_name(ptr noundef %27)
  store ptr %28, ptr %6, align 8
  %29 = load ptr, ptr %3, align 8
  %30 = call ptr @CPU_CLASS(ptr noundef %29)
  store ptr %30, ptr %4, align 8
  %31 = load ptr, ptr %4, align 8
  %32 = getelementptr inbounds nuw %struct.CPUClass, ptr %31, i32 0, i32 2
  %33 = load ptr, ptr %32, align 8
  %34 = load ptr, ptr %6, align 8
  %35 = load ptr, ptr %5, align 8
  %36 = getelementptr inbounds ptr, ptr %35, i64 1
  %37 = load ptr, ptr %36, align 8
  call void %33(ptr noundef %34, ptr noundef %37, ptr noundef @error_fatal)
  %38 = load ptr, ptr %5, align 8
  call void @g_strfreev(ptr noundef %38)
  %39 = load ptr, ptr %6, align 8
  call void @llvm.lifetime.end.p0(i64 8, ptr %6) #16
  call void @llvm.lifetime.end.p0(i64 8, ptr %5) #16
  call void @llvm.lifetime.end.p0(i64 8, ptr %4) #16
  call void @llvm.lifetime.end.p0(i64 8, ptr %3) #16
  ret ptr %39
}