; Function Attrs: nounwind sspstrong uwtable
define dso_local ptr @parse_cpu_option(ptr noundef %0) local_unnamed_addr #0 {
  %2 = tail call ptr @g_strsplit(ptr noundef %0, ptr noundef nonnull @.str.3, i32 noundef 2) #17
  %3 = load ptr, ptr %2, align 8
  %.not = icmp eq ptr %3, null
  br i1 %.not, label %4, label %5

4:                                                ; preds = %1
  tail call void (ptr, ...) @error_report(ptr noundef nonnull @.str.4) #17
  tail call void @exit(i32 noundef 1) #20
  unreachable

5:                                                ; preds = %1
  %6 = tail call ptr @cpu_class_by_name(ptr noundef nonnull @.str.5, ptr noundef nonnull %3) #17
  %7 = icmp eq ptr %6, null
  br i1 %7, label %8, label %10

8:                                                ; preds = %5
  %9 = load ptr, ptr %2, align 8
  tail call void (ptr, ...) @error_report(ptr noundef nonnull @.str.6, ptr noundef %9) #17
  tail call void @g_strfreev(ptr noundef nonnull %2) #17
  tail call void @exit(i32 noundef 1) #20
  unreachable

10:                                               ; preds = %5
  %11 = tail call ptr @object_class_get_name(ptr noundef nonnull %6) #17
  %12 = tail call ptr @object_class_dynamic_cast_assert(ptr noundef nonnull %6, ptr noundef nonnull @.str.11, ptr noundef nonnull @.str.12, i32 noundef 67, ptr noundef nonnull @__func__.CPU_CLASS) #17
  %13 = getelementptr inbounds nuw i8, ptr %12, i64 192
  %14 = load ptr, ptr %13, align 8
  %15 = getelementptr inbounds nuw i8, ptr %2, i64 8
  %16 = load ptr, ptr %15, align 8
  tail call void %14(ptr noundef %11, ptr noundef %16, ptr noundef nonnull @error_fatal) #17
  tail call void @g_strfreev(ptr noundef nonnull %2) #17
  ret ptr %11
}